target datalayout = "e-m:e-p270:32:32-p271:32:32-p272:64:64-i64:64-i128:128-f80:128-n8:16:32:64-S128"
target triple = "x86_64-pc-linux-gnu"

%struct._zval_struct = type { %union._zend_value, %union.anon, %union.anon.2 }
%union._zend_value = type { i64 }
%union.anon = type { i32 }
%union.anon.2 = type { i32 }
%struct._zend_refcounted_h = type { i32, %union.anon.3 }
%union.anon.3 = type { i32 }
%struct.anon.0 = type { i8, i8, %union.anon.1 }
%union.anon.1 = type { i16 }
%struct._zend_reference = type { %struct._zend_refcounted_h, %struct._zval_struct, %union.zend_property_info_source_list }
%union.zend_property_info_source_list = type { ptr }

; Function Attrs: nounwind uwtable
define internal void @zend_unclean_zval_ptr_dtor(ptr noundef %0) #0 {
  %2 = alloca ptr, align 8
  %3 = alloca ptr, align 8
  %4 = alloca ptr, align 8
  %5 = alloca ptr, align 8
  %6 = alloca ptr, align 8
  %7 = alloca ptr, align 8
  %8 = alloca ptr, align 8
  store ptr %0, ptr %8, align 8
  %9 = load ptr, ptr %8, align 8
  store ptr %9, ptr %7, align 8
  %10 = load ptr, ptr %7, align 8
  %11 = getelementptr inbounds %struct._zval_struct, ptr %10, i32 0, i32 1
  %12 = load i8, ptr %11, align 8
  %13 = zext i8 %12 to i32
  %14 = icmp eq i32 %13, 12
  br i1 %14, label %15, label %19

15:                                               ; preds = %1
  %16 = load ptr, ptr %8, align 8
  %17 = getelementptr inbounds %struct._zval_struct, ptr %16, i32 0, i32 0
  %18 = load ptr, ptr %17, align 8
  store ptr %18, ptr %8, align 8
  br label %19

19:                                               ; preds = %15, %1
  %20 = load ptr, ptr %8, align 8
  store ptr %20, ptr %5, align 8
  %21 = load ptr, ptr %5, align 8
  %22 = getelementptr inbounds %struct._zval_struct, ptr %21, i32 0, i32 1
  %23 = getelementptr inbounds %struct.anon.0, ptr %22, i32 0, i32 1
  %24 = load i8, ptr %23, align 1
  %25 = zext i8 %24 to i32
  %26 = icmp ne i32 %25, 0
  br i1 %26, label %27, label %70

27:                                               ; preds = %19
  %28 = load ptr, ptr %5, align 8
  %29 = load ptr, ptr %28, align 8
  store ptr %29, ptr %6, align 8
  %30 = load ptr, ptr %6, align 8
  store ptr %30, ptr %4, align 8
  %31 = load ptr, ptr %4, align 8
  %32 = load i32, ptr %31, align 4
  %33 = icmp ugt i32 %32, 0
  call void @llvm.assume(i1 %33)
  %34 = load ptr, ptr %4, align 8
  %35 = load i32, ptr %34, align 4
  %36 = add i32 %35, -1
  store i32 %36, ptr %34, align 4
  %37 = icmp ne i32 %36, 0
  br i1 %37, label %40, label %38

38:                                               ; preds = %27
  %39 = load ptr, ptr %6, align 8
  call void @rc_dtor_func(ptr noundef %39) #14
  br label %69

40:                                               ; preds = %27
  %41 = load ptr, ptr %6, align 8
  store ptr %41, ptr %2, align 8
  %42 = load ptr, ptr %2, align 8
  %43 = getelementptr inbounds %struct._zend_refcounted_h, ptr %42, i32 0, i32 1
  %44 = load i32, ptr %43, align 4
  %45 = icmp eq i32 %44, 26
  br i1 %45, label %46, label %60

46:                                               ; preds = %40
  %47 = load ptr, ptr %2, align 8
  %48 = getelementptr inbounds %struct._zend_reference, ptr %47, i32 0, i32 1
  store ptr %48, ptr %3, align 8
  %49 = load ptr, ptr %3, align 8
  %50 = getelementptr inbounds %struct._zval_struct, ptr %49, i32 0, i32 1
  %51 = getelementptr inbounds %struct.anon.0, ptr %50, i32 0, i32 1
  %52 = load i8, ptr %51, align 1
  %53 = zext i8 %52 to i32
  %54 = and i32 %53, 2
  %55 = icmp ne i32 %54, 0
  br i1 %55, label %57, label %56

56:                                               ; preds = %46
  br label %68

57:                                               ; preds = %46
  %58 = load ptr, ptr %3, align 8
  %59 = load ptr, ptr %58, align 8
  store ptr %59, ptr %2, align 8
  br label %60

60:                                               ; preds = %57, %40
  %61 = load ptr, ptr %2, align 8
  %62 = getelementptr inbounds %struct._zend_refcounted_h, ptr %61, i32 0, i32 1
  %63 = load i32, ptr %62, align 4
  %64 = and i32 %63, -1008
  %65 = icmp eq i32 %64, 0
  br i1 %65, label %66, label %68

66:                                               ; preds = %60
  %67 = load ptr, ptr %2, align 8
  call void @gc_possible_root(ptr noundef %67) #14
  br label %68

68:                                               ; preds = %66, %60, %56
  br label %69

69:                                               ; preds = %68, %38
  br label %70

70:                                               ; preds = %69, %19
  ret void
}