; Function Attrs: nounwind uwtable
define internal void @zend_unclean_zval_ptr_dtor(ptr nocapture noundef readonly %0) #0 {
  %2 = getelementptr inbounds i8, ptr %0, i64 8
  %3 = load i8, ptr %2, align 8
  %4 = icmp eq i8 %3, 12
  br i1 %4, label %5, label %7

5:                                                ; preds = %1
  %6 = load ptr, ptr %0, align 8
  br label %7

7:                                                ; preds = %5, %1
  %.0 = phi ptr [ %6, %5 ], [ %0, %1 ]
  %8 = getelementptr inbounds i8, ptr %.0, i64 9
  %9 = load i8, ptr %8, align 1
  %.not = icmp eq i8 %9, 0
  br i1 %.not, label %32, label %10

10:                                               ; preds = %7
  %11 = load ptr, ptr %.0, align 8
  %12 = load i32, ptr %11, align 4
  %13 = icmp ne i32 %12, 0
  tail call void @llvm.assume(i1 %13)
  %14 = add i32 %12, -1
  store i32 %14, ptr %11, align 4
  %.not18 = icmp eq i32 %14, 0
  br i1 %.not18, label %15, label %16

15:                                               ; preds = %10
  tail call void @rc_dtor_func(ptr noundef nonnull %11) #24
  br label %32

16:                                               ; preds = %10
  %17 = getelementptr inbounds i8, ptr %11, i64 4
  %18 = load i32, ptr %17, align 4
  %19 = icmp eq i32 %18, 26
  br i1 %19, label %20, label %27

20:                                               ; preds = %16
  %21 = getelementptr inbounds i8, ptr %11, i64 17
  %22 = load i8, ptr %21, align 1
  %23 = and i8 %22, 2
  %.not19 = icmp eq i8 %23, 0
  br i1 %.not19, label %32, label %24

24:                                               ; preds = %20
  %25 = getelementptr inbounds i8, ptr %11, i64 8
  %26 = load ptr, ptr %25, align 8
  %.phi.trans.insert = getelementptr inbounds i8, ptr %26, i64 4
  %.pre = load i32, ptr %.phi.trans.insert, align 4
  br label %27

27:                                               ; preds = %24, %16
  %28 = phi i32 [ %.pre, %24 ], [ %18, %16 ]
  %.017 = phi ptr [ %26, %24 ], [ %11, %16 ]
  %29 = and i32 %28, -1008
  %30 = icmp eq i32 %29, 0
  br i1 %30, label %31, label %32

31:                                               ; preds = %27
  tail call void @gc_possible_root(ptr noundef nonnull %.017) #24
  br label %32

32:                                               ; preds = %15, %20, %31, %27, %7
  ret void
}